; Function Attrs: mustprogress nounwind
define internal fastcc void @"_ZSt21__inplace_stable_sortIN9__gnu_cxx17__normal_iteratorIPPN4mold7CounterESt6vectorIS4_SaIS4_EEEENS0_5__ops15_Iter_comp_iterIZNS3_5printEvE3$_0EEEvT_SE_T0_"(ptr %0, ptr %1) unnamed_addr #4 {
  %3 = ptrtoint ptr %1 to i64
  %4 = ptrtoint ptr %0 to i64
  %5 = sub i64 %3, %4
  %6 = ashr exact i64 %5, 3
  %7 = icmp slt i64 %6, 15
  br i1 %7, label %common.ret, label %8

common.ret:                                       ; preds = %2
  tail call fastcc void @"_ZSt16__insertion_sortIN9__gnu_cxx17__normal_iteratorIPPN4mold7CounterESt6vectorIS4_SaIS4_EEEENS0_5__ops15_Iter_comp_iterIZNS3_5printEvE3$_0EEEvT_SE_T0_"(ptr %0, ptr %1)
  br label %common.ret25

common.ret25:                                     ; preds = %8, %common.ret
  ret void

8:                                                ; preds = %2
  %9 = lshr i64 %6, 1
  %10 = getelementptr inbounds nuw ptr, ptr %0, i64 %9
  tail call fastcc void @"_ZSt21__inplace_stable_sortIN9__gnu_cxx17__normal_iteratorIPPN4mold7CounterESt6vectorIS4_SaIS4_EEEENS0_5__ops15_Iter_comp_iterIZNS3_5printEvE3$_0EEEvT_SE_T0_"(ptr %0, ptr %10)
  tail call fastcc void @"_ZSt21__inplace_stable_sortIN9__gnu_cxx17__normal_iteratorIPPN4mold7CounterESt6vectorIS4_SaIS4_EEEENS0_5__ops15_Iter_comp_iterIZNS3_5printEvE3$_0EEEvT_SE_T0_"(ptr %10, ptr %1)
  %11 = ptrtoint ptr %10 to i64
  %12 = sub i64 %3, %11
  %13 = ashr exact i64 %12, 3
  tail call fastcc void @"_ZSt22__merge_without_bufferIN9__gnu_cxx17__normal_iteratorIPPN4mold7CounterESt6vectorIS4_SaIS4_EEEElNS0_5__ops15_Iter_comp_iterIZNS3_5printEvE3$_0EEEvT_SE_SE_T0_SF_T1_"(ptr %0, ptr %10, ptr %1, i64 noundef %9, i64 noundef %13)
  br label %common.ret25
}